target datalayout = "e-m:e-p270:32:32-p271:32:32-p272:64:64-i64:64-i128:128-f80:128-n8:16:32:64-S128"
target triple = "x86_64-unknown-linux-gnu"

%"class.facebook::velox::common::Filter" = type { %"class.facebook::velox::ISerializable", i8, i8, i32 }
%"class.facebook::velox::ISerializable" = type { ptr }
%"class.std::optional" = type { %"struct.std::_Optional_base" }
%"struct.std::_Optional_base" = type { %"struct.std::_Optional_payload" }
%"struct.std::_Optional_payload" = type { %"struct.std::_Optional_payload_base.base", [7 x i8] }
%"struct.std::_Optional_payload_base.base" = type <{ %"union.std::_Optional_payload_base<std::basic_string_view<char>>::_Storage", i8 }>
%"union.std::_Optional_payload_base<std::basic_string_view<char>>::_Storage" = type { %"class.std::basic_string_view" }
%"class.std::basic_string_view" = type { i64, ptr }
%"class.std::unique_ptr" = type { %"struct.std::__uniq_ptr_data" }
%"struct.std::__uniq_ptr_data" = type { %"class.std::__uniq_ptr_impl" }
%"class.std::__uniq_ptr_impl" = type { %"class.std::tuple" }
%"class.std::tuple" = type { %"struct.std::_Tuple_impl" }
%"struct.std::_Tuple_impl" = type { %"struct.std::_Head_base.11" }
%"struct.std::_Head_base.11" = type { ptr }
%"class.std::vector.232" = type { %"struct.std::_Vector_base.233" }
%"struct.std::_Vector_base.233" = type { %"struct.std::_Vector_base<std::unique_ptr<facebook::velox::common::Filter>, std::allocator<std::unique_ptr<facebook::velox::common::Filter>>>::_Vector_impl" }
%"struct.std::_Vector_base<std::unique_ptr<facebook::velox::common::Filter>, std::allocator<std::unique_ptr<facebook::velox::common::Filter>>>::_Vector_impl" = type { %"struct.std::_Vector_base<std::unique_ptr<facebook::velox::common::Filter>, std::allocator<std::unique_ptr<facebook::velox::common::Filter>>>::_Vector_impl_data" }
%"struct.std::_Vector_base<std::unique_ptr<facebook::velox::common::Filter>, std::allocator<std::unique_ptr<facebook::velox::common::Filter>>>::_Vector_impl_data" = type { ptr, ptr, ptr }
%"class.__gnu_cxx::__normal_iterator.237" = type { ptr }
%"class.facebook::velox::common::MultiRange" = type <{ %"class.facebook::velox::common::Filter", %"class.std::vector.232", i8, [7 x i8] }>

; Function Attrs: mustprogress nounwind uwtable
define linkonce_odr noundef nonnull align 8 dereferenceable(8) ptr @_ZNSt10_Head_baseILm0EPN8facebook5velox6common6FilterELb0EE7_M_headERKS5_(ptr noundef nonnull align 8 dereferenceable(8) %__b) #3 comdat align 2 {
entry:
  %__b.addr = alloca ptr, align 8
  store ptr %__b, ptr %__b.addr, align 8
  %0 = load ptr, ptr %__b.addr, align 8
  %_M_head_impl = getelementptr inbounds %"struct.std::_Head_base.11", ptr %0, i32 0, i32 0
  ret ptr %_M_head_impl
}

; Function Attrs: mustprogress nounwind uwtable
define linkonce_odr noundef nonnull align 8 dereferenceable(8) ptr @_ZNSt11_Tuple_implILm0EJPN8facebook5velox6common6FilterESt14default_deleteIS3_EEE7_M_headERKS7_(ptr noundef nonnull align 8 dereferenceable(8) %__t) #3 comdat align 2 {
entry:
  %__t.addr = alloca ptr, align 8
  store ptr %__t, ptr %__t.addr, align 8
  %0 = load ptr, ptr %__t.addr, align 8
  %call = call noundef nonnull align 8 dereferenceable(8) ptr @_ZNSt10_Head_baseILm0EPN8facebook5velox6common6FilterELb0EE7_M_headERKS5_(ptr noundef nonnull align 8 dereferenceable(8) %0) #13
  ret ptr %call
}

; Function Attrs: mustprogress nounwind uwtable
define linkonce_odr noundef nonnull align 8 dereferenceable(8) ptr @_ZSt12__get_helperILm0EPN8facebook5velox6common6FilterEJSt14default_deleteIS3_EEERKT0_RKSt11_Tuple_implIXT_EJS7_DpT1_EE(ptr noundef nonnull align 8 dereferenceable(8) %__t) #3 comdat {
entry:
  %__t.addr = alloca ptr, align 8
  store ptr %__t, ptr %__t.addr, align 8
  %0 = load ptr, ptr %__t.addr, align 8
  %call = call noundef nonnull align 8 dereferenceable(8) ptr @_ZNSt11_Tuple_implILm0EJPN8facebook5velox6common6FilterESt14default_deleteIS3_EEE7_M_headERKS7_(ptr noundef nonnull align 8 dereferenceable(8) %0) #13
  ret ptr %call
}

; Function Attrs: mustprogress nounwind uwtable
define linkonce_odr noundef nonnull align 8 dereferenceable(8) ptr @_ZSt3getILm0EJPN8facebook5velox6common6FilterESt14default_deleteIS3_EEERKNSt13tuple_elementIXT_ESt5tupleIJDpT0_EEE4typeERKSB_(ptr noundef nonnull align 8 dereferenceable(8) %__t) #3 comdat {
entry:
  %__t.addr = alloca ptr, align 8
  store ptr %__t, ptr %__t.addr, align 8
  %0 = load ptr, ptr %__t.addr, align 8
  %call = call noundef nonnull align 8 dereferenceable(8) ptr @_ZSt12__get_helperILm0EPN8facebook5velox6common6FilterEJSt14default_deleteIS3_EEERKT0_RKSt11_Tuple_implIXT_EJS7_DpT1_EE(ptr noundef nonnull align 8 dereferenceable(8) %0) #13
  ret ptr %call
}

; Function Attrs: mustprogress nounwind uwtable
define linkonce_odr noundef ptr @_ZNKSt15__uniq_ptr_implIN8facebook5velox6common6FilterESt14default_deleteIS3_EE6_M_ptrEv(ptr noundef nonnull align 8 dereferenceable(8) %this) #3 comdat align 2 {
entry:
  %this.addr = alloca ptr, align 8
  store ptr %this, ptr %this.addr, align 8
  %this1 = load ptr, ptr %this.addr, align 8
  %_M_t = getelementptr inbounds %"class.std::__uniq_ptr_impl", ptr %this1, i32 0, i32 0
  %call = call noundef nonnull align 8 dereferenceable(8) ptr @_ZSt3getILm0EJPN8facebook5velox6common6FilterESt14default_deleteIS3_EEERKNSt13tuple_elementIXT_ESt5tupleIJDpT0_EEE4typeERKSB_(ptr noundef nonnull align 8 dereferenceable(8) %_M_t) #13
  %0 = load ptr, ptr %call, align 8
  ret ptr %0
}

; Function Attrs: mustprogress nounwind uwtable
define linkonce_odr noundef ptr @_ZNKSt10unique_ptrIN8facebook5velox6common6FilterESt14default_deleteIS3_EE3getEv(ptr noundef nonnull align 8 dereferenceable(8) %this) #3 comdat align 2 {
entry:
  %this.addr = alloca ptr, align 8
  store ptr %this, ptr %this.addr, align 8
  %this1 = load ptr, ptr %this.addr, align 8
  %_M_t = getelementptr inbounds %"class.std::unique_ptr", ptr %this1, i32 0, i32 0
  %call = call noundef ptr @_ZNKSt15__uniq_ptr_implIN8facebook5velox6common6FilterESt14default_deleteIS3_EE6_M_ptrEv(ptr noundef nonnull align 8 dereferenceable(8) %_M_t) #13
  ret ptr %call
}

; Function Attrs: mustprogress nounwind uwtable
define linkonce_odr noundef nonnull align 8 dereferenceable(8) ptr @_ZNK9__gnu_cxx17__normal_iteratorIPKSt10unique_ptrIN8facebook5velox6common6FilterESt14default_deleteIS5_EESt6vectorIS8_SaIS8_EEE4baseEv(ptr noundef nonnull align 8 dereferenceable(8) %this) #3 comdat align 2 {
entry:
  %this.addr = alloca ptr, align 8
  store ptr %this, ptr %this.addr, align 8
  %this1 = load ptr, ptr %this.addr, align 8
  %_M_current = getelementptr inbounds %"class.__gnu_cxx::__normal_iterator.237", ptr %this1, i32 0, i32 0
  ret ptr %_M_current
}

; Function Attrs: mustprogress nounwind uwtable
define linkonce_odr void @_ZN9__gnu_cxx17__normal_iteratorIPKSt10unique_ptrIN8facebook5velox6common6FilterESt14default_deleteIS5_EESt6vectorIS8_SaIS8_EEEC2ERKSA_(ptr noundef nonnull align 8 dereferenceable(8) %this, ptr noundef nonnull align 8 dereferenceable(8) %__i) unnamed_addr #3 comdat align 2 {
entry:
  %this.addr = alloca ptr, align 8
  %__i.addr = alloca ptr, align 8
  store ptr %this, ptr %this.addr, align 8
  store ptr %__i, ptr %__i.addr, align 8
  %this1 = load ptr, ptr %this.addr, align 8
  %_M_current = getelementptr inbounds %"class.__gnu_cxx::__normal_iterator.237", ptr %this1, i32 0, i32 0
  %0 = load ptr, ptr %__i.addr, align 8
  %1 = load ptr, ptr %0, align 8
  store ptr %1, ptr %_M_current, align 8
  ret void
}

; Function Attrs: mustprogress nounwind uwtable
define linkonce_odr noundef nonnull align 8 dereferenceable(8) ptr @_ZN9__gnu_cxx17__normal_iteratorIPKSt10unique_ptrIN8facebook5velox6common6FilterESt14default_deleteIS5_EESt6vectorIS8_SaIS8_EEEppEv(ptr noundef nonnull align 8 dereferenceable(8) %this) #3 comdat align 2 {
entry:
  %this.addr = alloca ptr, align 8
  store ptr %this, ptr %this.addr, align 8
  %this1 = load ptr, ptr %this.addr, align 8
  %_M_current = getelementptr inbounds %"class.__gnu_cxx::__normal_iterator.237", ptr %this1, i32 0, i32 0
  %0 = load ptr, ptr %_M_current, align 8
  %incdec.ptr = getelementptr inbounds %"class.std::unique_ptr", ptr %0, i32 1
  store ptr %incdec.ptr, ptr %_M_current, align 8
  ret ptr %this1
}

; Function Attrs: mustprogress nounwind uwtable
define linkonce_odr noundef ptr @_ZNKSt10unique_ptrIN8facebook5velox6common6FilterESt14default_deleteIS3_EEptEv(ptr noundef nonnull align 8 dereferenceable(8) %this) #3 comdat align 2 {
entry:
  %this.addr = alloca ptr, align 8
  store ptr %this, ptr %this.addr, align 8
  %this1 = load ptr, ptr %this.addr, align 8
  %call = call noundef ptr @_ZNKSt10unique_ptrIN8facebook5velox6common6FilterESt14default_deleteIS3_EE3getEv(ptr noundef nonnull align 8 dereferenceable(8) %this1) #13
  ret ptr %call
}

; Function Attrs: mustprogress nounwind uwtable
define linkonce_odr noundef nonnull align 8 dereferenceable(8) ptr @_ZNK9__gnu_cxx17__normal_iteratorIPKSt10unique_ptrIN8facebook5velox6common6FilterESt14default_deleteIS5_EESt6vectorIS8_SaIS8_EEEdeEv(ptr noundef nonnull align 8 dereferenceable(8) %this) #3 comdat align 2 {
entry:
  %this.addr = alloca ptr, align 8
  store ptr %this, ptr %this.addr, align 8
  %this1 = load ptr, ptr %this.addr, align 8
  %_M_current = getelementptr inbounds %"class.__gnu_cxx::__normal_iterator.237", ptr %this1, i32 0, i32 0
  %0 = load ptr, ptr %_M_current, align 8
  ret ptr %0
}

; Function Attrs: mustprogress nounwind uwtable
define linkonce_odr noundef zeroext i1 @_ZN9__gnu_cxxneIPKSt10unique_ptrIN8facebook5velox6common6FilterESt14default_deleteIS5_EESt6vectorIS8_SaIS8_EEEEbRKNS_17__normal_iteratorIT_T0_EESJ_(ptr noundef nonnull align 8 dereferenceable(8) %__lhs, ptr noundef nonnull align 8 dereferenceable(8) %__rhs) #3 comdat {
entry:
  %__lhs.addr = alloca ptr, align 8
  %__rhs.addr = alloca ptr, align 8
  store ptr %__lhs, ptr %__lhs.addr, align 8
  store ptr %__rhs, ptr %__rhs.addr, align 8
  %0 = load ptr, ptr %__lhs.addr, align 8
  %call = call noundef nonnull align 8 dereferenceable(8) ptr @_ZNK9__gnu_cxx17__normal_iteratorIPKSt10unique_ptrIN8facebook5velox6common6FilterESt14default_deleteIS5_EESt6vectorIS8_SaIS8_EEE4baseEv(ptr noundef nonnull align 8 dereferenceable(8) %0) #13
  %1 = load ptr, ptr %call, align 8
  %2 = load ptr, ptr %__rhs.addr, align 8
  %call1 = call noundef nonnull align 8 dereferenceable(8) ptr @_ZNK9__gnu_cxx17__normal_iteratorIPKSt10unique_ptrIN8facebook5velox6common6FilterESt14default_deleteIS5_EESt6vectorIS8_SaIS8_EEE4baseEv(ptr noundef nonnull align 8 dereferenceable(8) %2) #13
  %3 = load ptr, ptr %call1, align 8
  %cmp = icmp ne ptr %1, %3
  ret i1 %cmp
}

; Function Attrs: mustprogress nounwind uwtable
define linkonce_odr ptr @_ZNKSt6vectorISt10unique_ptrIN8facebook5velox6common6FilterESt14default_deleteIS4_EESaIS7_EE3endEv(ptr noundef nonnull align 8 dereferenceable(24) %this) #3 comdat align 2 {
entry:
  %retval = alloca %"class.__gnu_cxx::__normal_iterator.237", align 8
  %this.addr = alloca ptr, align 8
  store ptr %this, ptr %this.addr, align 8
  %this1 = load ptr, ptr %this.addr, align 8
  %_M_impl = getelementptr inbounds %"struct.std::_Vector_base.233", ptr %this1, i32 0, i32 0
  %_M_finish = getelementptr inbounds %"struct.std::_Vector_base<std::unique_ptr<facebook::velox::common::Filter>, std::allocator<std::unique_ptr<facebook::velox::common::Filter>>>::_Vector_impl_data", ptr %_M_impl, i32 0, i32 1
  call void @_ZN9__gnu_cxx17__normal_iteratorIPKSt10unique_ptrIN8facebook5velox6common6FilterESt14default_deleteIS5_EESt6vectorIS8_SaIS8_EEEC2ERKSA_(ptr noundef nonnull align 8 dereferenceable(8) %retval, ptr noundef nonnull align 8 dereferenceable(8) %_M_finish) #13
  %coerce.dive = getelementptr inbounds %"class.__gnu_cxx::__normal_iterator.237", ptr %retval, i32 0, i32 0
  %0 = load ptr, ptr %coerce.dive, align 8
  ret ptr %0
}

; Function Attrs: mustprogress nounwind uwtable
define linkonce_odr ptr @_ZNKSt6vectorISt10unique_ptrIN8facebook5velox6common6FilterESt14default_deleteIS4_EESaIS7_EE5beginEv(ptr noundef nonnull align 8 dereferenceable(24) %this) #3 comdat align 2 {
entry:
  %retval = alloca %"class.__gnu_cxx::__normal_iterator.237", align 8
  %this.addr = alloca ptr, align 8
  store ptr %this, ptr %this.addr, align 8
  %this1 = load ptr, ptr %this.addr, align 8
  %_M_impl = getelementptr inbounds %"struct.std::_Vector_base.233", ptr %this1, i32 0, i32 0
  %_M_start = getelementptr inbounds %"struct.std::_Vector_base<std::unique_ptr<facebook::velox::common::Filter>, std::allocator<std::unique_ptr<facebook::velox::common::Filter>>>::_Vector_impl_data", ptr %_M_impl, i32 0, i32 0
  call void @_ZN9__gnu_cxx17__normal_iteratorIPKSt10unique_ptrIN8facebook5velox6common6FilterESt14default_deleteIS5_EESt6vectorIS8_SaIS8_EEEC2ERKSA_(ptr noundef nonnull align 8 dereferenceable(8) %retval, ptr noundef nonnull align 8 dereferenceable(8) %_M_start) #13
  %coerce.dive = getelementptr inbounds %"class.__gnu_cxx::__normal_iterator.237", ptr %retval, i32 0, i32 0
  %0 = load ptr, ptr %coerce.dive, align 8
  ret ptr %0
}

; Function Attrs: mustprogress uwtable
define noundef zeroext i1 @_ZNK8facebook5velox6common10MultiRange14testBytesRangeESt8optionalISt17basic_string_viewIcSt11char_traitsIcEEES8_b(ptr noundef nonnull align 8 dereferenceable(48) %this, ptr noundef byval(%"class.std::optional") align 8 %min, ptr noundef byval(%"class.std::optional") align 8 %max, i1 noundef zeroext %hasNull) unnamed_addr #0 align 2 {
entry:
  %retval = alloca i1, align 1
  %this.addr = alloca ptr, align 8
  %hasNull.addr = alloca i8, align 1
  %__range2 = alloca ptr, align 8
  %__begin2 = alloca %"class.__gnu_cxx::__normal_iterator.237", align 8
  %__end2 = alloca %"class.__gnu_cxx::__normal_iterator.237", align 8
  %filter = alloca ptr, align 8
  %agg.tmp = alloca %"class.std::optional", align 8
  %agg.tmp8 = alloca %"class.std::optional", align 8
  store ptr %this, ptr %this.addr, align 8
  %frombool = zext i1 %hasNull to i8
  store i8 %frombool, ptr %hasNull.addr, align 1
  %this1 = load ptr, ptr %this.addr, align 8
  %0 = load i8, ptr %hasNull.addr, align 1
  %tobool = trunc i8 %0 to i1
  br i1 %tobool, label %land.lhs.true, label %if.end

land.lhs.true:                                    ; preds = %entry
  %nullAllowed_ = getelementptr inbounds %"class.facebook::velox::common::Filter", ptr %this1, i32 0, i32 1
  %1 = load i8, ptr %nullAllowed_, align 8
  %tobool2 = trunc i8 %1 to i1
  br i1 %tobool2, label %if.then, label %if.end

if.then:                                          ; preds = %land.lhs.true
  store i1 true, ptr %retval, align 1
  br label %return

if.end:                                           ; preds = %land.lhs.true, %entry
  %filters_ = getelementptr inbounds %"class.facebook::velox::common::MultiRange", ptr %this1, i32 0, i32 1
  store ptr %filters_, ptr %__range2, align 8
  %2 = load ptr, ptr %__range2, align 8
  %call = call ptr @_ZNKSt6vectorISt10unique_ptrIN8facebook5velox6common6FilterESt14default_deleteIS4_EESaIS7_EE5beginEv(ptr noundef nonnull align 8 dereferenceable(24) %2) #13
  %coerce.dive = getelementptr inbounds %"class.__gnu_cxx::__normal_iterator.237", ptr %__begin2, i32 0, i32 0
  store ptr %call, ptr %coerce.dive, align 8
  %3 = load ptr, ptr %__range2, align 8
  %call3 = call ptr @_ZNKSt6vectorISt10unique_ptrIN8facebook5velox6common6FilterESt14default_deleteIS4_EESaIS7_EE3endEv(ptr noundef nonnull align 8 dereferenceable(24) %3) #13
  %coerce.dive4 = getelementptr inbounds %"class.__gnu_cxx::__normal_iterator.237", ptr %__end2, i32 0, i32 0
  store ptr %call3, ptr %coerce.dive4, align 8
  br label %for.cond

for.cond:                                         ; preds = %for.inc, %if.end
  %call5 = call noundef zeroext i1 @_ZN9__gnu_cxxneIPKSt10unique_ptrIN8facebook5velox6common6FilterESt14default_deleteIS5_EESt6vectorIS8_SaIS8_EEEEbRKNS_17__normal_iteratorIT_T0_EESJ_(ptr noundef nonnull align 8 dereferenceable(8) %__begin2, ptr noundef nonnull align 8 dereferenceable(8) %__end2) #13
  br i1 %call5, label %for.body, label %for.end

for.body:                                         ; preds = %for.cond
  %call6 = call noundef nonnull align 8 dereferenceable(8) ptr @_ZNK9__gnu_cxx17__normal_iteratorIPKSt10unique_ptrIN8facebook5velox6common6FilterESt14default_deleteIS5_EESt6vectorIS8_SaIS8_EEEdeEv(ptr noundef nonnull align 8 dereferenceable(8) %__begin2) #13
  store ptr %call6, ptr %filter, align 8
  %4 = load ptr, ptr %filter, align 8
  %call7 = call noundef ptr @_ZNKSt10unique_ptrIN8facebook5velox6common6FilterESt14default_deleteIS3_EEptEv(ptr noundef nonnull align 8 dereferenceable(8) %4) #13
  call void @llvm.memcpy.p0.p0.i64(ptr align 8 %agg.tmp, ptr align 8 %min, i64 24, i1 false)
  call void @llvm.memcpy.p0.p0.i64(ptr align 8 %agg.tmp8, ptr align 8 %max, i64 24, i1 false)
  %5 = load i8, ptr %hasNull.addr, align 1
  %tobool9 = trunc i8 %5 to i1
  %vtable = load ptr, ptr %call7, align 8
  %vfn = getelementptr inbounds ptr, ptr %vtable, i64 28
  %6 = load ptr, ptr %vfn, align 8
  %call10 = call noundef zeroext i1 %6(ptr noundef nonnull align 8 dereferenceable(16) %call7, ptr noundef byval(%"class.std::optional") align 8 %agg.tmp, ptr noundef byval(%"class.std::optional") align 8 %agg.tmp8, i1 noundef zeroext %tobool9)
  br i1 %call10, label %if.then11, label %if.end12

if.then11:                                        ; preds = %for.body
  store i1 true, ptr %retval, align 1
  br label %return

if.end12:                                         ; preds = %for.body
  br label %for.inc

for.inc:                                          ; preds = %if.end12
  %call13 = call noundef nonnull align 8 dereferenceable(8) ptr @_ZN9__gnu_cxx17__normal_iteratorIPKSt10unique_ptrIN8facebook5velox6common6FilterESt14default_deleteIS5_EESt6vectorIS8_SaIS8_EEEppEv(ptr noundef nonnull align 8 dereferenceable(8) %__begin2) #13
  br label %for.cond

for.end:                                          ; preds = %for.cond
  store i1 false, ptr %retval, align 1
  br label %return

return:                                           ; preds = %for.end, %if.then11, %if.then
  %7 = load i1, ptr %retval, align 1
  ret i1 %7
}